target datalayout = "e-m:e-p270:32:32-p271:32:32-p272:64:64-i64:64-i128:128-f80:128-n8:16:32:64-S128"
target triple = "x86_64-pc-linux-gnu"

%struct.prte_plm_base_module_1_0_0_t = type { ptr, ptr, ptr, ptr, ptr, ptr, ptr, ptr, ptr }

@.str.5 = private unnamed_addr constant [37 x i8] c"PRTE ERROR: %s in file %s at line %d\00", align 1
@.str.6 = private unnamed_addr constant [8 x i8] c"prted.c\00", align 1
@prte_plm = external global %struct.prte_plm_base_module_1_0_0_t, align 8

; Function Attrs: nounwind uwtable
define internal void @node_regex_report(i32 noundef %0, ptr noundef %1, ptr noundef %2, i32 noundef %3, ptr noundef %4) #0 {
  %6 = alloca i32, align 4
  %7 = alloca ptr, align 8
  %8 = alloca ptr, align 8
  %9 = alloca i32, align 4
  %10 = alloca ptr, align 8
  %11 = alloca i32, align 4
  %12 = alloca ptr, align 8
  %13 = alloca i32, align 4
  store i32 %0, ptr %6, align 4, !tbaa !4
  store ptr %1, ptr %7, align 8, !tbaa !131
  store ptr %2, ptr %8, align 8, !tbaa !16
  store i32 %3, ptr %9, align 4, !tbaa !4
  store ptr %4, ptr %10, align 8, !tbaa !21
  call void @llvm.lifetime.start.p0(i64 4, ptr %11) #12
  call void @llvm.lifetime.start.p0(i64 8, ptr %12) #12
  %14 = load ptr, ptr %10, align 8, !tbaa !21
  store ptr %14, ptr %12, align 8, !tbaa !133
  %15 = load ptr, ptr %8, align 8, !tbaa !16
  %16 = call i32 @prte_util_decode_nidmap(ptr noundef %15)
  store i32 %16, ptr %11, align 4, !tbaa !4
  %17 = icmp ne i32 0, %16
  br i1 %17, label %18, label %28

18:                                               ; preds = %5
  br label %19

19:                                               ; preds = %18
  %20 = load i32, ptr %11, align 4, !tbaa !4
  %21 = icmp ne i32 -43, %20
  br i1 %21, label %22, label %25

22:                                               ; preds = %19
  %23 = load i32, ptr %11, align 4, !tbaa !4
  %24 = call ptr @prte_strerror(i32 noundef %23)
  call void (i32, ptr, ...) @pmix_output(i32 noundef 0, ptr noundef @.str.5, ptr noundef %24, ptr noundef @.str.6, i32 noundef 927)
  br label %25

25:                                               ; preds = %22, %19
  br label %26

26:                                               ; preds = %25
  br label %27

27:                                               ; preds = %26
  store i32 1, ptr %13, align 4
  br label %32

28:                                               ; preds = %5
  %29 = load ptr, ptr %12, align 8, !tbaa !133
  store i8 0, ptr %29, align 1, !tbaa !34
  %30 = load ptr, ptr getelementptr inbounds nuw (%struct.prte_plm_base_module_1_0_0_t, ptr @prte_plm, i32 0, i32 3), align 8, !tbaa !135
  %31 = call i32 %30()
  call void @report_prted()
  store i32 0, ptr %13, align 4
  br label %32

32:                                               ; preds = %28, %27
  call void @llvm.lifetime.end.p0(i64 8, ptr %12) #12
  call void @llvm.lifetime.end.p0(i64 4, ptr %11) #12
  %33 = load i32, ptr %13, align 4
  switch i32 %33, label %35 [
    i32 0, label %34
    i32 1, label %34
  ]

34:                                               ; preds = %32, %32
  ret void

35:                                               ; preds = %32
  unreachable
}