; Function Attrs: nounwind uwtable
define internal void @node_regex_report(i32 %0, ptr readnone captures(none) %1, ptr noundef %2, i32 %3, ptr noundef writeonly captures(none) %4) #0 {
  %6 = tail call i32 @prte_util_decode_nidmap(ptr noundef %2) #19
  switch i32 %6, label %7 [
    i32 0, label %9
    i32 -43, label %12
  ]

7:                                                ; preds = %5
  %8 = tail call ptr @prte_strerror(i32 noundef %6) #19
  tail call void (i32, ptr, ...) @pmix_output(i32 noundef 0, ptr noundef nonnull @.str.5, ptr noundef %8, ptr noundef nonnull @.str.6, i32 noundef 927) #19
  br label %12

9:                                                ; preds = %5
  store i8 0, ptr %4, align 1, !tbaa !35
  %10 = load ptr, ptr getelementptr inbounds nuw (i8, ptr @prte_plm, i64 24), align 8, !tbaa !116
  %11 = tail call i32 %10() #19
  tail call fastcc void @report_prted()
  br label %12

12:                                               ; preds = %7, %5, %9
  ret void
}